CCS PCM C Compiler, Version 4.068, 57327               04-Feb-15 08:18

               Filename: E:\HDD\YAZILIM\PIC\pic_projects\pic-16F688\sirali_led\code_files\main.lst

               ROM used: 124 words (3%)
                         Largest free fragment is 2048
               RAM used: 6 (2%) at main() level
                         7 (3%) worst case
               Stack:    1 locations

*
0000:  MOVLW  00
0001:  MOVWF  0A
0002:  GOTO   018
0003:  NOP
.................... #include "E:\HDD\YAZILIM\PIC\pic_projects\pic-16F688\sirali_led\code_files\main.h" 
.................... #include <16F688.h> 
.................... //////// Standard Header file for the PIC16F688 device //////////////// 
.................... #device PIC16F688 
.................... #list 
....................  
.................... #device adc=8 
....................  
.................... #FUSES NOWDT                    //No Watch Dog Timer 
.................... #FUSES INTRC_IO                 //Internal RC Osc, no CLKOUT 
.................... #FUSES NOPROTECT                //Code not protected from reading 
.................... #FUSES NOBROWNOUT               //No brownout reset 
.................... #FUSES NOMCLR                   //Master Clear pin used for I/O 
.................... #FUSES NOCPD                    //No EE protection 
.................... #FUSES NOPUT                    //No Power Up Timer 
.................... #FUSES NOIESO                   //Internal External Switch Over mode disabled 
.................... #FUSES NOFCMEN                  //Fail-safe clock monitor disabled 
....................  
.................... #use delay(clock=8000000) 
0004:  MOVLW  26
0005:  MOVWF  04
0006:  BCF    03.7
0007:  MOVF   00,W
0008:  BTFSC  03.2
0009:  GOTO   017
000A:  MOVLW  02
000B:  MOVWF  21
000C:  CLRF   20
000D:  DECFSZ 20,F
000E:  GOTO   00D
000F:  DECFSZ 21,F
0010:  GOTO   00C
0011:  MOVLW  97
0012:  MOVWF  20
0013:  DECFSZ 20,F
0014:  GOTO   013
0015:  DECFSZ 00,F
0016:  GOTO   00A
0017:  RETLW  00
.................... #use rs232(baud=9600,parity=N,xmit=PIN_A3,rcv=PIN_A2,bits=8) 
....................  
....................  
....................  
....................  
....................  
....................  
.................... void main() 
.................... { 
0018:  CLRF   04
0019:  BCF    03.7
001A:  MOVLW  1F
001B:  ANDWF  03,F
001C:  MOVLW  71
001D:  BSF    03.5
001E:  MOVWF  0F
001F:  MOVF   0F,W
0020:  BCF    05.3
0021:  BCF    03.5
0022:  BSF    05.3
0023:  BCF    1F.6
0024:  MOVLW  00
0025:  BSF    03.5
0026:  MOVWF  11
0027:  MOVLW  07
0028:  BCF    03.5
0029:  MOVWF  19
....................  
....................    setup_adc_ports(NO_ANALOGS|VSS_VDD); 
002A:  BCF    1F.6
002B:  MOVLW  00
002C:  BSF    03.5
002D:  MOVWF  11
....................    setup_adc(ADC_OFF); 
002E:  BCF    03.5
002F:  BCF    1F.0
....................    setup_timer_0(RTCC_INTERNAL|RTCC_DIV_1); 
0030:  BSF    03.5
0031:  MOVF   01,W
0032:  ANDLW  C7
0033:  IORLW  08
0034:  MOVWF  01
....................    setup_timer_1(T1_DISABLED); 
0035:  BCF    03.5
0036:  CLRF   10
....................    setup_comparator(NC_NC); 
0037:  MOVLW  07
0038:  MOVWF  19
0039:  BSF    03.5
003A:  MOVF   05,W
003B:  MOVLW  06
003C:  BCF    03.5
003D:  MOVWF  20
003E:  DECFSZ 20,F
003F:  GOTO   03E
0040:  NOP
0041:  MOVF   19,W
0042:  BCF    0C.3
....................    setup_vref(FALSE); 
0043:  BSF    03.5
0044:  CLRF   19
....................    setup_oscillator(OSC_8MHZ); 
0045:  MOVLW  71
0046:  MOVWF  0F
0047:  MOVF   0F,W
....................  
....................    // TODO: USER CODE!! 
....................    
....................    while(true){ 
....................       // A0 harekete geciyor.. 
....................          output_high(pin_a0); 
0048:  BCF    05.0
0049:  BCF    03.5
004A:  BSF    05.0
....................          delay_ms(200); 
004B:  MOVLW  C8
004C:  MOVWF  26
004D:  CALL   004
....................          output_low(pin_a0); 
004E:  BSF    03.5
004F:  BCF    05.0
0050:  BCF    03.5
0051:  BCF    05.0
....................          delay_ms(200); 
0052:  MOVLW  C8
0053:  MOVWF  26
0054:  CALL   004
....................          output_high(pin_a0); 
0055:  BSF    03.5
0056:  BCF    05.0
0057:  BCF    03.5
0058:  BSF    05.0
....................          delay_ms(200); 
0059:  MOVLW  C8
005A:  MOVWF  26
005B:  CALL   004
....................          output_low(pin_a0); 
005C:  BSF    03.5
005D:  BCF    05.0
005E:  BCF    03.5
005F:  BCF    05.0
....................        
....................       // C0 harekete geciyor.. 
....................          output_high(pin_c0); 
0060:  BSF    03.5
0061:  BCF    07.0
0062:  BCF    03.5
0063:  BSF    07.0
....................          delay_ms(200); 
0064:  MOVLW  C8
0065:  MOVWF  26
0066:  CALL   004
....................          output_low(pin_c0); 
0067:  BSF    03.5
0068:  BCF    07.0
0069:  BCF    03.5
006A:  BCF    07.0
....................          delay_ms(200); 
006B:  MOVLW  C8
006C:  MOVWF  26
006D:  CALL   004
....................          output_high(pin_c0); 
006E:  BSF    03.5
006F:  BCF    07.0
0070:  BCF    03.5
0071:  BSF    07.0
....................          delay_ms(200); 
0072:  MOVLW  C8
0073:  MOVWF  26
0074:  CALL   004
....................          output_low(pin_c0); 
0075:  BSF    03.5
0076:  BCF    07.0
0077:  BCF    03.5
0078:  BCF    07.0
....................  
....................    } 
0079:  BSF    03.5
007A:  GOTO   048
....................  
.................... } 
007B:  SLEEP

Configuration Fuses:
   Word  1: 30D4   INTRC_IO NOPROTECT NOBROWNOUT NOMCLR NOCPD NOWDT NOPUT NOIESO NOFCMEN
